target datalayout = "e-m:e-p270:32:32-p271:32:32-p272:64:64-i64:64-i128:128-f80:128-n8:16:32:64-S128"
target triple = "x86_64-pc-linux-gnu"

%"class.icu_77::CalendarAstronomer" = type <{ double, double, double, double, double, %"class.icu_77::CalendarAstronomer::Equatorial", i8, [7 x i8] }>
%"class.icu_77::CalendarAstronomer::Equatorial" = type { double, double }

; Function Attrs: inlinehint mustprogress uwtable
define linkonce_odr noundef double @_ZN6icu_779ClockMath11floorDivideEdd(double noundef %0, double noundef %1) #3 comdat align 2 {
  %3 = alloca double, align 8
  %4 = alloca double, align 8
  store double %0, ptr %3, align 8, !tbaa !15
  store double %1, ptr %4, align 8, !tbaa !15
  %5 = load double, ptr %3, align 8, !tbaa !15
  %6 = load double, ptr %4, align 8, !tbaa !15
  %7 = fdiv double %5, %6
  %8 = call double @uprv_floor_77(double noundef %7)
  ret double %8
}

; Function Attrs: inlinehint mustprogress uwtable
define internal noundef double @_ZN6icu_77L9normalizeEdd(double noundef %0, double noundef %1) #3 {
  %3 = alloca double, align 8
  %4 = alloca double, align 8
  store double %0, ptr %3, align 8, !tbaa !15
  store double %1, ptr %4, align 8, !tbaa !15
  %5 = load double, ptr %3, align 8, !tbaa !15
  %6 = load double, ptr %4, align 8, !tbaa !15
  %7 = load double, ptr %3, align 8, !tbaa !15
  %8 = load double, ptr %4, align 8, !tbaa !15
  %9 = call noundef double @_ZN6icu_779ClockMath11floorDivideEdd(double noundef %7, double noundef %8)
  %10 = fneg double %6
  %11 = call double @llvm.fmuladd.f64(double %10, double %9, double %5)
  ret double %11
}

; Function Attrs: mustprogress uwtable
define internal noundef double @_ZN6icu_77L11trueAnomalyEdd(double noundef %0, double noundef %1) #0 {
  %3 = alloca double, align 8
  %4 = alloca double, align 8
  %5 = alloca double, align 8
  %6 = alloca double, align 8
  store double %0, ptr %3, align 8, !tbaa !15
  store double %1, ptr %4, align 8, !tbaa !15
  call void @llvm.lifetime.start.p0(i64 8, ptr %5) #10
  call void @llvm.lifetime.start.p0(i64 8, ptr %6) #10
  %7 = load double, ptr %3, align 8, !tbaa !15
  store double %7, ptr %6, align 8, !tbaa !15
  br label %8

8:                                                ; preds = %26, %2
  %9 = load double, ptr %6, align 8, !tbaa !15
  %10 = load double, ptr %4, align 8, !tbaa !15
  %11 = load double, ptr %6, align 8, !tbaa !15
  %12 = call double @sin(double noundef %11) #10, !tbaa !22
  %13 = fneg double %10
  %14 = call double @llvm.fmuladd.f64(double %13, double %12, double %9)
  %15 = load double, ptr %3, align 8, !tbaa !15
  %16 = fsub double %14, %15
  store double %16, ptr %5, align 8, !tbaa !15
  %17 = load double, ptr %6, align 8, !tbaa !15
  %18 = load double, ptr %5, align 8, !tbaa !15
  %19 = load double, ptr %4, align 8, !tbaa !15
  %20 = load double, ptr %6, align 8, !tbaa !15
  %21 = call double @cos(double noundef %20) #10, !tbaa !22
  %22 = fneg double %19
  %23 = call double @llvm.fmuladd.f64(double %22, double %21, double 1.000000e+00)
  %24 = fdiv double %18, %23
  %25 = fsub double %17, %24
  store double %25, ptr %6, align 8, !tbaa !15
  br label %26

26:                                               ; preds = %8
  %27 = load double, ptr %5, align 8, !tbaa !15
  %28 = call double @uprv_fabs_77(double noundef %27)
  %29 = fcmp ogt double %28, 1.000000e-05
  br i1 %29, label %8, label %30, !llvm.loop !26

30:                                               ; preds = %26
  %31 = load double, ptr %6, align 8, !tbaa !15
  %32 = fdiv double %31, 2.000000e+00
  %33 = call double @tan(double noundef %32) #10, !tbaa !22
  %34 = load double, ptr %4, align 8, !tbaa !15
  %35 = fadd double 1.000000e+00, %34
  %36 = load double, ptr %4, align 8, !tbaa !15
  %37 = fsub double 1.000000e+00, %36
  %38 = fdiv double %35, %37
  %39 = call double @sqrt(double noundef %38) #10, !tbaa !22
  %40 = fmul double %33, %39
  %41 = call double @atan(double noundef %40) #10, !tbaa !22
  %42 = fmul double 2.000000e+00, %41
  call void @llvm.lifetime.end.p0(i64 8, ptr %6) #10
  call void @llvm.lifetime.end.p0(i64 8, ptr %5) #10
  ret double %42
}

; Function Attrs: inlinehint mustprogress uwtable
define internal noundef double @_ZN6icu_77L7norm2PIEd(double noundef %0) #3 {
  %2 = alloca double, align 8
  store double %0, ptr %2, align 8, !tbaa !15
  %3 = load double, ptr %2, align 8, !tbaa !15
  %4 = call noundef double @_ZN6icu_77L9normalizeEdd(double noundef %3, double noundef 0x401921FB54442D18)
  ret double %4
}

; Function Attrs: mustprogress uwtable
define void @_ZN6icu_7718CalendarAstronomer15getSunLongitudeEdRdS1_(ptr noundef nonnull align 8 dereferenceable(57) %0, double noundef %1, ptr noundef nonnull align 8 dereferenceable(8) %2, ptr noundef nonnull align 8 dereferenceable(8) %3) #0 align 2 {
  %5 = alloca ptr, align 8
  %6 = alloca double, align 8
  %7 = alloca ptr, align 8
  %8 = alloca ptr, align 8
  %9 = alloca double, align 8
  %10 = alloca double, align 8
  store ptr %0, ptr %5, align 8, !tbaa !3
  store double %1, ptr %6, align 8, !tbaa !15
  store ptr %2, ptr %7, align 8, !tbaa !24
  store ptr %3, ptr %8, align 8, !tbaa !24
  call void @llvm.lifetime.start.p0(i64 8, ptr %9) #10
  %11 = load double, ptr %6, align 8, !tbaa !15
  %12 = fsub double %11, 0x4142AD09C0000000
  store double %12, ptr %9, align 8, !tbaa !15
  call void @llvm.lifetime.start.p0(i64 8, ptr %10) #10
  %13 = load double, ptr %9, align 8, !tbaa !15
  %14 = fmul double 0x3F919D9BCDD8AC02, %13
  %15 = call noundef double @_ZN6icu_77L7norm2PIEd(double noundef %14)
  store double %15, ptr %10, align 8, !tbaa !15
  %16 = load double, ptr %10, align 8, !tbaa !15
  %17 = fadd double %16, 0x4013818B33DDEEE0
  %18 = fsub double %17, 0x4013BDAF8CEE89A2
  %19 = call noundef double @_ZN6icu_77L7norm2PIEd(double noundef %18)
  %20 = load ptr, ptr %8, align 8, !tbaa !24
  store double %19, ptr %20, align 8, !tbaa !15
  %21 = load ptr, ptr %8, align 8, !tbaa !24
  %22 = load double, ptr %21, align 8, !tbaa !15
  %23 = call noundef double @_ZN6icu_77L11trueAnomalyEdd(double noundef %22, double noundef 1.671300e-02)
  %24 = fadd double %23, 0x4013BDAF8CEE89A2
  %25 = call noundef double @_ZN6icu_77L7norm2PIEd(double noundef %24)
  %26 = load ptr, ptr %7, align 8, !tbaa !24
  store double %25, ptr %26, align 8, !tbaa !15
  call void @llvm.lifetime.end.p0(i64 8, ptr %10) #10
  call void @llvm.lifetime.end.p0(i64 8, ptr %9) #10
  ret void
}

; Function Attrs: mustprogress uwtable
define noundef double @_ZN6icu_7718CalendarAstronomer12getJulianDayEv(ptr noundef nonnull align 8 dereferenceable(57) %0) #0 align 2 {
  %2 = alloca ptr, align 8
  store ptr %0, ptr %2, align 8, !tbaa !3
  %3 = load ptr, ptr %2, align 8
  %4 = getelementptr inbounds nuw %"class.icu_77::CalendarAstronomer", ptr %3, i32 0, i32 1
  %5 = load double, ptr %4, align 8, !tbaa !18
  %6 = call noundef signext i8 @_ZL9isINVALIDd(double noundef %5)
  %7 = icmp ne i8 %6, 0
  br i1 %7, label %8, label %14

8:                                                ; preds = %1
  %9 = getelementptr inbounds nuw %"class.icu_77::CalendarAstronomer", ptr %3, i32 0, i32 0
  %10 = load double, ptr %9, align 8, !tbaa !8
  %11 = fsub double %10, 0xC2E7F907CA644000
  %12 = fdiv double %11, 8.640000e+07
  %13 = getelementptr inbounds nuw %"class.icu_77::CalendarAstronomer", ptr %3, i32 0, i32 1
  store double %12, ptr %13, align 8, !tbaa !18
  br label %14

14:                                               ; preds = %8, %1
  %15 = getelementptr inbounds nuw %"class.icu_77::CalendarAstronomer", ptr %3, i32 0, i32 1
  %16 = load double, ptr %15, align 8, !tbaa !18
  ret double %16
}

; Function Attrs: inlinehint mustprogress uwtable
define internal noundef signext i8 @_ZL9isINVALIDd(double noundef %0) #3 {
  %2 = alloca double, align 8
  store double %0, ptr %2, align 8, !tbaa !15
  %3 = load double, ptr %2, align 8, !tbaa !15
  %4 = call signext i8 @uprv_isNaN_77(double noundef %3)
  ret i8 %4
}

; Function Attrs: mustprogress uwtable
define noundef double @_ZN6icu_7718CalendarAstronomer15getSunLongitudeEv(ptr noundef nonnull align 8 dereferenceable(57) %0) #0 align 2 {
  %2 = alloca ptr, align 8
  store ptr %0, ptr %2, align 8, !tbaa !3
  %3 = load ptr, ptr %2, align 8
  %4 = getelementptr inbounds nuw %"class.icu_77::CalendarAstronomer", ptr %3, i32 0, i32 2
  %5 = load double, ptr %4, align 8, !tbaa !19
  %6 = call noundef signext i8 @_ZL9isINVALIDd(double noundef %5)
  %7 = icmp ne i8 %6, 0
  br i1 %7, label %8, label %12

8:                                                ; preds = %1
  %9 = call noundef double @_ZN6icu_7718CalendarAstronomer12getJulianDayEv(ptr noundef nonnull align 8 dereferenceable(57) %3)
  %10 = getelementptr inbounds nuw %"class.icu_77::CalendarAstronomer", ptr %3, i32 0, i32 2
  %11 = getelementptr inbounds nuw %"class.icu_77::CalendarAstronomer", ptr %3, i32 0, i32 3
  call void @_ZN6icu_7718CalendarAstronomer15getSunLongitudeEdRdS1_(ptr noundef nonnull align 8 dereferenceable(57) %3, double noundef %9, ptr noundef nonnull align 8 dereferenceable(8) %10, ptr noundef nonnull align 8 dereferenceable(8) %11)
  br label %12

12:                                               ; preds = %8, %1
  %13 = getelementptr inbounds nuw %"class.icu_77::CalendarAstronomer", ptr %3, i32 0, i32 2
  %14 = load double, ptr %13, align 8, !tbaa !19
  ret double %14
}