; Function Attrs: mustprogress uwtable
define noundef double @_ZN6icu_7718CalendarAstronomer15getSunLongitudeEv(ptr noundef nonnull align 8 captures(none) dereferenceable(57) %0) local_unnamed_addr #0 align 2 {
  %2 = getelementptr inbounds nuw i8, ptr %0, i64 16
  %3 = load double, ptr %2, align 8, !tbaa !10
  %4 = tail call noundef signext i8 @uprv_isNaN_77(double noundef %3)
  %.not = icmp eq i8 %4, 0
  br i1 %.not, label %._crit_edge, label %5

._crit_edge:                                      ; preds = %1
  %.pre = load double, ptr %2, align 8, !tbaa !10
  br label %44

5:                                                ; preds = %1
  %6 = getelementptr inbounds nuw i8, ptr %0, i64 8
  %7 = load double, ptr %6, align 8, !tbaa !9
  %8 = tail call noundef signext i8 @uprv_isNaN_77(double noundef %7)
  %.not.i = icmp eq i8 %8, 0
  br i1 %.not.i, label %._crit_edge.i, label %9

._crit_edge.i:                                    ; preds = %5
  %.pre.i = load double, ptr %6, align 8, !tbaa !9
  br label %_ZN6icu_7718CalendarAstronomer12getJulianDayEv.exit

9:                                                ; preds = %5
  %10 = load double, ptr %0, align 8, !tbaa !3
  %11 = fadd double %10, 0x42E7F907CA644000
  %12 = fdiv double %11, 8.640000e+07
  store double %12, ptr %6, align 8, !tbaa !9
  br label %_ZN6icu_7718CalendarAstronomer12getJulianDayEv.exit

_ZN6icu_7718CalendarAstronomer12getJulianDayEv.exit: ; preds = %._crit_edge.i, %9
  %13 = phi double [ %.pre.i, %._crit_edge.i ], [ %12, %9 ]
  %14 = getelementptr inbounds nuw i8, ptr %0, i64 24
  %15 = fadd double %13, 0xC142AD09C0000000
  %16 = fmul double %15, 0x3F919D9BCDD8AC02
  %17 = fdiv double %16, 0x401921FB54442D18
  %18 = tail call noundef double @uprv_floor_77(double noundef %17)
  %19 = tail call noundef double @llvm.fmuladd.f64(double %18, double 0xC01921FB54442D18, double %16)
  %20 = fadd double %19, 0x4013818B33DDEEE0
  %21 = fadd double %20, 0xC013BDAF8CEE89A2
  %22 = fdiv double %21, 0x401921FB54442D18
  %23 = tail call noundef double @uprv_floor_77(double noundef %22)
  %24 = tail call noundef double @llvm.fmuladd.f64(double %23, double 0xC01921FB54442D18, double %21)
  store double %24, ptr %14, align 8, !tbaa !18
  br label %25

25:                                               ; preds = %25, %_ZN6icu_7718CalendarAstronomer12getJulianDayEv.exit
  %.0.i.i = phi double [ %24, %_ZN6icu_7718CalendarAstronomer12getJulianDayEv.exit ], [ %32, %25 ]
  %26 = tail call double @sin(double noundef %.0.i.i) #16, !tbaa !14
  %27 = tail call double @llvm.fmuladd.f64(double %26, double -1.671300e-02, double %.0.i.i)
  %28 = fsub double %27, %24
  %29 = tail call double @cos(double noundef %.0.i.i) #16, !tbaa !14
  %30 = tail call double @llvm.fmuladd.f64(double %29, double -1.671300e-02, double 1.000000e+00)
  %31 = fdiv double %28, %30
  %32 = fsub double %.0.i.i, %31
  %33 = tail call double @uprv_fabs_77(double noundef %28)
  %34 = fcmp ogt double %33, 1.000000e-05
  br i1 %34, label %25, label %_ZN6icu_7718CalendarAstronomer15getSunLongitudeEdRdS1_.exit, !llvm.loop !19

_ZN6icu_7718CalendarAstronomer15getSunLongitudeEdRdS1_.exit: ; preds = %25
  %35 = fmul double %32, 5.000000e-01
  %36 = tail call double @tan(double noundef %35) #16, !tbaa !14
  %37 = fmul double %36, 0x3FF04509C69ED7D5
  %38 = tail call double @atan(double noundef %37) #16, !tbaa !14
  %39 = fmul double %38, 2.000000e+00
  %40 = fadd double %39, 0x4013BDAF8CEE89A2
  %41 = fdiv double %40, 0x401921FB54442D18
  %42 = tail call noundef double @uprv_floor_77(double noundef %41)
  %43 = tail call noundef double @llvm.fmuladd.f64(double %42, double 0xC01921FB54442D18, double %40)
  store double %43, ptr %2, align 8, !tbaa !18
  br label %44

44:                                               ; preds = %._crit_edge, %_ZN6icu_7718CalendarAstronomer15getSunLongitudeEdRdS1_.exit
  %45 = phi double [ %.pre, %._crit_edge ], [ %43, %_ZN6icu_7718CalendarAstronomer15getSunLongitudeEdRdS1_.exit ]
  ret double %45
}